target datalayout = "e-m:e-p270:32:32-p271:32:32-p272:64:64-i64:64-i128:128-f80:128-n8:16:32:64-S128"
target triple = "x86_64-unknown-linux-gnu"

%"struct.std::_Vector_base" = type { %"struct.std::_Vector_base<std::__cxx11::basic_string<char>, std::allocator<std::__cxx11::basic_string<char>>>::_Vector_impl" }
%"struct.std::_Vector_base<std::__cxx11::basic_string<char>, std::allocator<std::__cxx11::basic_string<char>>>::_Vector_impl" = type { %"struct.std::_Vector_base<std::__cxx11::basic_string<char>, std::allocator<std::__cxx11::basic_string<char>>>::_Vector_impl_data" }
%"struct.std::_Vector_base<std::__cxx11::basic_string<char>, std::allocator<std::__cxx11::basic_string<char>>>::_Vector_impl_data" = type { ptr, ptr, ptr }
%"class.Assimp::MDLImporter" = type <{ %"class.Assimp::BaseImporter", i32, [4 x i8], %"class.std::__cxx11::basic_string", ptr, i32, [4 x i8], ptr, ptr, i32, %"struct.Assimp::MDL::HalfLife::HL1ImportSettings", [2 x i8] }>
%"class.Assimp::BaseImporter" = type { ptr, double, double, %"class.std::__cxx11::basic_string", %"class.std::__exception_ptr::exception_ptr", ptr }
%"class.std::__exception_ptr::exception_ptr" = type { ptr }
%"class.std::__cxx11::basic_string" = type { %"struct.std::__cxx11::basic_string<char>::_Alloc_hider", i64, %union.anon }
%"struct.std::__cxx11::basic_string<char>::_Alloc_hider" = type { ptr }
%union.anon = type { i64, [8 x i8] }
%"struct.Assimp::MDL::HalfLife::HL1ImportSettings" = type { i8, i8, i8, i8, i8, i8, i8, i8, i8, i8 }
%"class.Assimp::MDL::HalfLife::HL1MDLLoader" = type { ptr, ptr, ptr, ptr, ptr, ptr, ptr, ptr, ptr, ptr, i32, %"class.std::vector.64", %"class.Assimp::MDL::HalfLife::UniqueNameGenerator", %"class.std::vector", %"class.std::vector", %"class.std::vector.69", i32, i32 }
%"class.std::vector.64" = type { %"struct.std::_Vector_base.65" }
%"struct.std::_Vector_base.65" = type { %"struct.std::_Vector_base<aiNode *, std::allocator<aiNode *>>::_Vector_impl" }
%"struct.std::_Vector_base<aiNode *, std::allocator<aiNode *>>::_Vector_impl" = type { %"struct.std::_Vector_base<aiNode *, std::allocator<aiNode *>>::_Vector_impl_data" }
%"struct.std::_Vector_base<aiNode *, std::allocator<aiNode *>>::_Vector_impl_data" = type { ptr, ptr, ptr }
%"class.Assimp::MDL::HalfLife::UniqueNameGenerator" = type { %"class.std::__cxx11::basic_string", %"class.std::__cxx11::basic_string" }
%"class.std::vector" = type { %"struct.std::_Vector_base" }
%"class.std::vector.69" = type { %"struct.std::_Vector_base.70" }
%"struct.std::_Vector_base.70" = type { %"struct.std::_Vector_base<Assimp::MDL::HalfLife::HL1MDLLoader::TempBone, std::allocator<Assimp::MDL::HalfLife::HL1MDLLoader::TempBone>>::_Vector_impl" }
%"struct.std::_Vector_base<Assimp::MDL::HalfLife::HL1MDLLoader::TempBone, std::allocator<Assimp::MDL::HalfLife::HL1MDLLoader::TempBone>>::_Vector_impl" = type { %"struct.std::_Vector_base<Assimp::MDL::HalfLife::HL1MDLLoader::TempBone, std::allocator<Assimp::MDL::HalfLife::HL1MDLLoader::TempBone>>::_Vector_impl_data" }
%"struct.std::_Vector_base<Assimp::MDL::HalfLife::HL1MDLLoader::TempBone, std::allocator<Assimp::MDL::HalfLife::HL1MDLLoader::TempBone>>::_Vector_impl_data" = type { ptr, ptr, ptr }

@_ZTI17DeadlyImportError = linkonce_odr constant { ptr, ptr, ptr } { ptr getelementptr inbounds (ptr, ptr @_ZTVN10__cxxabiv120__si_class_type_infoE, i64 2), ptr @_ZTS17DeadlyImportError, ptr @_ZTI15DeadlyErrorBase }, comdat, align 8
@.str.36 = private unnamed_addr constant [5 x i8] c"IDSQ\00", align 1
@.str.37 = private unnamed_addr constant [5 x i8] c"QSDI\00", align 1
@.str.91 = private unnamed_addr constant [63 x i8] c"Impossible to properly load a model from an MDL sequence file.\00", align 1

; Function Attrs: mustprogress uwtable
define hidden void @_ZN6Assimp11MDLImporter18InternReadFile_HL1ERKNSt7__cxx1112basic_stringIcSt11char_traitsIcESaIcEEEj(ptr noundef nonnull align 8 dereferenceable(158) %this, ptr noundef nonnull align 8 dereferenceable(32) %pFile, i32 noundef %iMagicWord) #2 align 2 personality ptr @__gxx_personality_v0 {
entry:
  %this.addr = alloca ptr, align 8
  %pFile.addr = alloca ptr, align 8
  %iMagicWord.addr = alloca i32, align 4
  %exn.slot = alloca ptr, align 8
  %ehselector.slot = alloca i32, align 4
  %loader = alloca %"class.Assimp::MDL::HalfLife::HL1MDLLoader", align 8
  store ptr %this, ptr %this.addr, align 8
  store ptr %pFile, ptr %pFile.addr, align 8
  store i32 %iMagicWord, ptr %iMagicWord.addr, align 4
  %this1 = load ptr, ptr %this.addr, align 8
  %0 = load i32, ptr %iMagicWord.addr, align 4
  %1 = load i8, ptr @.str.36, align 1
  %conv = sext i8 %1 to i32
  %shl = shl i32 %conv, 24
  %2 = load i8, ptr getelementptr inbounds ([5 x i8], ptr @.str.36, i64 0, i64 1), align 1
  %conv2 = sext i8 %2 to i32
  %shl3 = shl i32 %conv2, 16
  %add = add nsw i32 %shl, %shl3
  %3 = load i8, ptr getelementptr inbounds ([5 x i8], ptr @.str.36, i64 0, i64 2), align 1
  %conv4 = sext i8 %3 to i32
  %shl5 = shl i32 %conv4, 8
  %add6 = add nsw i32 %add, %shl5
  %4 = load i8, ptr getelementptr inbounds ([5 x i8], ptr @.str.36, i64 0, i64 3), align 1
  %conv7 = sext i8 %4 to i32
  %add8 = add nsw i32 %add6, %conv7
  %cmp = icmp eq i32 %0, %add8
  br i1 %cmp, label %if.then, label %lor.lhs.false

lor.lhs.false:                                    ; preds = %entry
  %5 = load i32, ptr %iMagicWord.addr, align 4
  %6 = load i8, ptr @.str.37, align 1
  %conv9 = sext i8 %6 to i32
  %shl10 = shl i32 %conv9, 24
  %7 = load i8, ptr getelementptr inbounds ([5 x i8], ptr @.str.37, i64 0, i64 1), align 1
  %conv11 = sext i8 %7 to i32
  %shl12 = shl i32 %conv11, 16
  %add13 = add nsw i32 %shl10, %shl12
  %8 = load i8, ptr getelementptr inbounds ([5 x i8], ptr @.str.37, i64 0, i64 2), align 1
  %conv14 = sext i8 %8 to i32
  %shl15 = shl i32 %conv14, 8
  %add16 = add nsw i32 %add13, %shl15
  %9 = load i8, ptr getelementptr inbounds ([5 x i8], ptr @.str.37, i64 0, i64 3), align 1
  %conv17 = sext i8 %9 to i32
  %add18 = add nsw i32 %add16, %conv17
  %cmp19 = icmp eq i32 %5, %add18
  br i1 %cmp19, label %if.then, label %if.end

if.then:                                          ; preds = %lor.lhs.false, %entry
  %exception = call ptr @__cxa_allocate_exception(i64 16) #16
  invoke void @_ZN17DeadlyImportErrorC2EPKc(ptr noundef nonnull align 8 dereferenceable(16) %exception, ptr noundef @.str.91)
          to label %invoke.cont unwind label %lpad

invoke.cont:                                      ; preds = %if.then
  call void @__cxa_throw(ptr %exception, ptr @_ZTI17DeadlyImportError, ptr @_ZN17DeadlyImportErrorD2Ev) #17
  unreachable

lpad:                                             ; preds = %if.then
  %10 = landingpad { ptr, i32 }
          cleanup
  %11 = extractvalue { ptr, i32 } %10, 0
  store ptr %11, ptr %exn.slot, align 8
  %12 = extractvalue { ptr, i32 } %10, 1
  store i32 %12, ptr %ehselector.slot, align 4
  call void @__cxa_free_exception(ptr %exception) #16
  br label %eh.resume

if.end:                                           ; preds = %lor.lhs.false
  %pScene = getelementptr inbounds %"class.Assimp::MDLImporter", ptr %this1, i32 0, i32 8
  %13 = load ptr, ptr %pScene, align 8
  %mIOHandler = getelementptr inbounds %"class.Assimp::MDLImporter", ptr %this1, i32 0, i32 7
  %14 = load ptr, ptr %mIOHandler, align 8
  %mBuffer = getelementptr inbounds %"class.Assimp::MDLImporter", ptr %this1, i32 0, i32 4
  %15 = load ptr, ptr %mBuffer, align 8
  %16 = load ptr, ptr %pFile.addr, align 8
  %mHL1ImportSettings = getelementptr inbounds %"class.Assimp::MDLImporter", ptr %this1, i32 0, i32 10
  call void @_ZN6Assimp3MDL8HalfLife12HL1MDLLoaderC1EP7aiScenePNS_8IOSystemEPKhRKNSt7__cxx1112basic_stringIcSt11char_traitsIcESaIcEEERKNS1_17HL1ImportSettingsE(ptr noundef nonnull align 8 dereferenceable(256) %loader, ptr noundef %13, ptr noundef %14, ptr noundef %15, ptr noundef nonnull align 8 dereferenceable(32) %16, ptr noundef nonnull align 1 dereferenceable(10) %mHL1ImportSettings)
  call void @_ZN6Assimp3MDL8HalfLife12HL1MDLLoaderD1Ev(ptr noundef nonnull align 8 dereferenceable(256) %loader) #16
  ret void

eh.resume:                                        ; preds = %lpad
  %exn = load ptr, ptr %exn.slot, align 8
  %sel = load i32, ptr %ehselector.slot, align 4
  %lpad.val = insertvalue { ptr, i32 } poison, ptr %exn, 0
  %lpad.val20 = insertvalue { ptr, i32 } %lpad.val, i32 %sel, 1
  resume { ptr, i32 } %lpad.val20
}