; Function Attrs: mustprogress uwtable
define hidden void @_ZN6Assimp11MDLImporter18InternReadFile_HL1ERKNSt7__cxx1112basic_stringIcSt11char_traitsIcESaIcEEEj(ptr noundef nonnull align 8 dereferenceable(158) %this, ptr noundef nonnull align 8 dereferenceable(32) %pFile, i32 noundef %iMagicWord) local_unnamed_addr #2 align 2 personality ptr @__gxx_personality_v0 {
entry:
  %loader = alloca %"class.Assimp::MDL::HalfLife::HL1MDLLoader", align 8
  switch i32 %iMagicWord, label %if.end [
    i32 1229214545, label %if.then
    i32 1364411465, label %if.then
  ]

if.then:                                          ; preds = %entry, %entry
  %exception = tail call ptr @__cxa_allocate_exception(i64 16) #24
  invoke void @_ZN17DeadlyImportErrorC2EPKc(ptr noundef nonnull align 8 dereferenceable(16) %exception, ptr noundef nonnull @.str.91)
          to label %invoke.cont unwind label %lpad

invoke.cont:                                      ; preds = %if.then
  tail call void @__cxa_throw(ptr nonnull %exception, ptr nonnull @_ZTI17DeadlyImportError, ptr nonnull @_ZN17DeadlyImportErrorD2Ev) #25
  unreachable

lpad:                                             ; preds = %if.then
  %0 = landingpad { ptr, i32 }
          cleanup
  tail call void @__cxa_free_exception(ptr %exception) #24
  resume { ptr, i32 } %0

if.end:                                           ; preds = %entry
  %pScene = getelementptr inbounds i8, ptr %this, i64 136
  %1 = load ptr, ptr %pScene, align 8
  %mIOHandler = getelementptr inbounds i8, ptr %this, i64 128
  %2 = load ptr, ptr %mIOHandler, align 8
  %mBuffer = getelementptr inbounds i8, ptr %this, i64 112
  %3 = load ptr, ptr %mBuffer, align 8
  %mHL1ImportSettings = getelementptr inbounds i8, ptr %this, i64 148
  call void @_ZN6Assimp3MDL8HalfLife12HL1MDLLoaderC1EP7aiScenePNS_8IOSystemEPKhRKNSt7__cxx1112basic_stringIcSt11char_traitsIcESaIcEEERKNS1_17HL1ImportSettingsE(ptr noundef nonnull align 8 dereferenceable(256) %loader, ptr noundef %1, ptr noundef %2, ptr noundef %3, ptr noundef nonnull align 8 dereferenceable(32) %pFile, ptr noundef nonnull align 1 dereferenceable(10) %mHL1ImportSettings)
  call void @_ZN6Assimp3MDL8HalfLife12HL1MDLLoaderD1Ev(ptr noundef nonnull align 8 dereferenceable(256) %loader) #24
  ret void
}